; Function Attrs: mustprogress nofree norecurse nosync nounwind willreturn memory(argmem: write) uwtable
define internal noundef zeroext i1 @_ZNSt17_Function_handlerIFN12_GLOBAL__N_110GraphStyleEN5Yosys5RTLIL6SigBitES4_EZNS0_13FlowmapWorker14dump_dot_graphENSt7__cxx1112basic_stringIcSt11char_traitsIcESaIcEEENS6_9GraphModeENS2_7hashlib4poolIS4_NSE_8hash_opsIS4_EEEENSE_4dictIS4_SI_SH_EESK_St4pairISI_SI_EEUlS4_S4_E_E10_M_managerERSt9_Any_dataRKSP_St18_Manager_operation(ptr nocapture noundef nonnull writeonly align 8 dereferenceable(16) %0, ptr noundef nonnull align 8 dereferenceable(16) %1, i32 noundef %2) #16 align 2 personality ptr @__gxx_personality_v0 {
  switch i32 %2, label %_ZNSt14_Function_base13_Base_managerIZN12_GLOBAL__N_113FlowmapWorker14dump_dot_graphENSt7__cxx1112basic_stringIcSt11char_traitsIcESaIcEEENS2_9GraphModeEN5Yosys7hashlib4poolINSA_5RTLIL6SigBitENSB_8hash_opsISE_EEEENSB_4dictISE_SH_SG_EESJ_St4pairISH_SH_EEUlSE_SE_E_E10_M_managerERSt9_Any_dataRKSO_St18_Manager_operation.exit [
    i32 0, label %_ZNSt14_Function_base13_Base_managerIZN12_GLOBAL__N_113FlowmapWorker14dump_dot_graphENSt7__cxx1112basic_stringIcSt11char_traitsIcESaIcEEENS2_9GraphModeEN5Yosys7hashlib4poolINSA_5RTLIL6SigBitENSB_8hash_opsISE_EEEENSB_4dictISE_SH_SG_EESJ_St4pairISH_SH_EEUlSE_SE_E_E10_M_managerERSt9_Any_dataRKSO_St18_Manager_operation.exit.sink.split
    i32 1, label %4
  ]

4:                                                ; preds = %3
  br label %_ZNSt14_Function_base13_Base_managerIZN12_GLOBAL__N_113FlowmapWorker14dump_dot_graphENSt7__cxx1112basic_stringIcSt11char_traitsIcESaIcEEENS2_9GraphModeEN5Yosys7hashlib4poolINSA_5RTLIL6SigBitENSB_8hash_opsISE_EEEENSB_4dictISE_SH_SG_EESJ_St4pairISH_SH_EEUlSE_SE_E_E10_M_managerERSt9_Any_dataRKSO_St18_Manager_operation.exit.sink.split

_ZNSt14_Function_base13_Base_managerIZN12_GLOBAL__N_113FlowmapWorker14dump_dot_graphENSt7__cxx1112basic_stringIcSt11char_traitsIcESaIcEEENS2_9GraphModeEN5Yosys7hashlib4poolINSA_5RTLIL6SigBitENSB_8hash_opsISE_EEEENSB_4dictISE_SH_SG_EESJ_St4pairISH_SH_EEUlSE_SE_E_E10_M_managerERSt9_Any_dataRKSO_St18_Manager_operation.exit.sink.split: ; preds = %3, %4
  %.sink = phi ptr [ %1, %4 ], [ @_ZTIZN12_GLOBAL__N_113FlowmapWorker14dump_dot_graphENSt7__cxx1112basic_stringIcSt11char_traitsIcESaIcEEENS0_9GraphModeEN5Yosys7hashlib4poolINS8_5RTLIL6SigBitENS9_8hash_opsISC_EEEENS9_4dictISC_SF_SE_EESH_St4pairISF_SF_EEUlSC_SC_E_, %3 ]
  store ptr %.sink, ptr %0, align 8
  br label %_ZNSt14_Function_base13_Base_managerIZN12_GLOBAL__N_113FlowmapWorker14dump_dot_graphENSt7__cxx1112basic_stringIcSt11char_traitsIcESaIcEEENS2_9GraphModeEN5Yosys7hashlib4poolINSA_5RTLIL6SigBitENSB_8hash_opsISE_EEEENSB_4dictISE_SH_SG_EESJ_St4pairISH_SH_EEUlSE_SE_E_E10_M_managerERSt9_Any_dataRKSO_St18_Manager_operation.exit

_ZNSt14_Function_base13_Base_managerIZN12_GLOBAL__N_113FlowmapWorker14dump_dot_graphENSt7__cxx1112basic_stringIcSt11char_traitsIcESaIcEEENS2_9GraphModeEN5Yosys7hashlib4poolINSA_5RTLIL6SigBitENSB_8hash_opsISE_EEEENSB_4dictISE_SH_SG_EESJ_St4pairISH_SH_EEUlSE_SE_E_E10_M_managerERSt9_Any_dataRKSO_St18_Manager_operation.exit: ; preds = %_ZNSt14_Function_base13_Base_managerIZN12_GLOBAL__N_113FlowmapWorker14dump_dot_graphENSt7__cxx1112basic_stringIcSt11char_traitsIcESaIcEEENS2_9GraphModeEN5Yosys7hashlib4poolINSA_5RTLIL6SigBitENSB_8hash_opsISE_EEEENSB_4dictISE_SH_SG_EESJ_St4pairISH_SH_EEUlSE_SE_E_E10_M_managerERSt9_Any_dataRKSO_St18_Manager_operation.exit.sink.split, %3
  ret i1 false
}